; ModuleID = '15/396.c'
source_filename = "15/396.c"
target datalayout = "e-m:e-p270:32:32-p271:32:32-p272:64:64-i64:64-f80:128-n8:16:32:64-S128"
target triple = "x86_64-pc-linux-gnu"

@.str = private unnamed_addr constant [3 x i8] c"%d\00", align 1

; Function Attrs: noinline nounwind uwtable
define dso_local i32 @main() #0 {
  %1 = alloca i32, align 4
  %2 = alloca i32, align 4
  %3 = alloca i32, align 4
  %4 = alloca i32, align 4
  %5 = alloca i32, align 4
  %6 = alloca i32, align 4
  %7 = alloca i32, align 4
  store i32 0, i32* %1, align 4
  store i32 0, i32* %4, align 4
  store i32 0, i32* %5, align 4
  store i32 0, i32* %6, align 4
  %8 = call i32 (i8*, ...) @__isoc99_scanf(i8* getelementptr inbounds ([3 x i8], [3 x i8]* @.str, i64 0, i64 0), i32* %7)
  store i32 1, i32* %2, align 4
  br label %9

9:                                                ; preds = %38, %0
  %10 = load i32, i32* %2, align 4
  %11 = load i32, i32* %7, align 4
  %12 = load i32, i32* %7, align 4
  %13 = mul nsw i32 %11, %12
  %14 = icmp sle i32 %10, %13
  br i1 %14, label %15, label %41

15:                                               ; preds = %9
  %16 = call i32 (i8*, ...) @__isoc99_scanf(i8* getelementptr inbounds ([3 x i8], [3 x i8]* @.str, i64 0, i64 0), i32* %3)
  %17 = load i32, i32* %3, align 4
  %18 = icmp eq i32 %17, 0
  br i1 %18, label %19, label %33

19:                                               ; preds = %15
  %20 = load i32, i32* %4, align 4
  %21 = add nsw i32 %20, 1
  store i32 %21, i32* %4, align 4
  %22 = load i32, i32* %5, align 4
  %23 = add nsw i32 %22, 1
  store i32 %23, i32* %5, align 4
  %24 = load i32, i32* %4, align 4
  %25 = load i32, i32* %6, align 4
  %26 = icmp sgt i32 %24, %25
  br i1 %26, label %27, label %29

27:                                               ; preds = %19
  %28 = load i32, i32* %4, align 4
  br label %31

29:                                               ; preds = %19
  %30 = load i32, i32* %6, align 4
  br label %31

31:                                               ; preds = %29, %27
  %32 = phi i32 [ %28, %27 ], [ %30, %29 ]
  store i32 %32, i32* %6, align 4
  br label %33

33:                                               ; preds = %31, %15
  %34 = load i32, i32* %3, align 4
  %35 = icmp eq i32 %34, 255
  br i1 %35, label %36, label %37

36:                                               ; preds = %33
  store i32 0, i32* %4, align 4
  br label %37

37:                                               ; preds = %36, %33
  br label %38

38:                                               ; preds = %37
  %39 = load i32, i32* %2, align 4
  %40 = add nsw i32 %39, 1
  store i32 %40, i32* %2, align 4
  br label %9

41:                                               ; preds = %9
  %42 = load i32, i32* %5, align 4
  %43 = load i32, i32* %6, align 4
  %44 = mul nsw i32 2, %43
  %45 = sub nsw i32 %42, %44
  %46 = sdiv i32 %45, 2
  store i32 %46, i32* %4, align 4
  %47 = load i32, i32* %4, align 4
  %48 = load i32, i32* %6, align 4
  %49 = sub nsw i32 %48, 2
  %50 = mul nsw i32 %47, %49
  %51 = call i32 (i8*, ...) @printf(i8* getelementptr inbounds ([3 x i8], [3 x i8]* @.str, i64 0, i64 0), i32 %50)
  ret i32 0
}

declare dso_local i32 @__isoc99_scanf(i8*, ...) #1

declare dso_local i32 @printf(i8*, ...) #1


!llvm.module.flags = !{!0}
!llvm.ident = !{!1}

!0 = !{i32 1, !"wchar_size", i32 4}
!1 = !{!"clang version 10.0.0-4ubuntu1 "}
