; ModuleID = 'source-C-CXX/14/396.c'
source_filename = "source-C-CXX/14/396.c"
target datalayout = "e-m:e-p270:32:32-p271:32:32-p272:64:64-i64:64-f80:128-n8:16:32:64-S128"
target triple = "x86_64-pc-linux-gnu"

@.str = private unnamed_addr constant [3 x i8] c"%d\00", align 1

; Function Attrs: nofree nounwind sspstrong uwtable
define dso_local i32 @main() local_unnamed_addr #0 {
  %1 = alloca i32, align 4
  %2 = alloca i32, align 4
  %3 = bitcast i32* %1 to i8*
  call void @llvm.lifetime.start.p0i8(i64 4, i8* nonnull %3) #3
  %4 = bitcast i32* %2 to i8*
  call void @llvm.lifetime.start.p0i8(i64 4, i8* nonnull %4) #3
  %5 = call i32 (i8*, ...) @__isoc99_scanf(i8* getelementptr inbounds ([3 x i8], [3 x i8]* @.str, i64 0, i64 0), i32* nonnull %2)
  %6 = load i32, i32* %2, align 4, !tbaa !5
  %7 = mul nsw i32 %6, %6
  %8 = icmp eq i32 %7, 0
  br i1 %8, label %30, label %9

9:                                                ; preds = %0, %9
  %10 = phi i32 [ %23, %9 ], [ 0, %0 ]
  %11 = phi i32 [ %22, %9 ], [ 0, %0 ]
  %12 = phi i32 [ %25, %9 ], [ 0, %0 ]
  %13 = phi i32 [ %26, %9 ], [ 1, %0 ]
  %14 = call i32 (i8*, ...) @__isoc99_scanf(i8* getelementptr inbounds ([3 x i8], [3 x i8]* @.str, i64 0, i64 0), i32* nonnull %1)
  %15 = load i32, i32* %1, align 4, !tbaa !5
  %16 = icmp eq i32 %15, 0
  %17 = add nsw i32 %12, 1
  %18 = icmp slt i32 %12, %10
  %19 = select i1 %18, i32 %10, i32 %17
  %20 = select i1 %16, i32 %17, i32 %12
  %21 = zext i1 %16 to i32
  %22 = add nuw nsw i32 %11, %21
  %23 = select i1 %16, i32 %19, i32 %10
  %24 = icmp eq i32 %15, 255
  %25 = select i1 %24, i32 0, i32 %20
  %26 = add nuw nsw i32 %13, 1
  %27 = load i32, i32* %2, align 4, !tbaa !5
  %28 = mul nsw i32 %27, %27
  %29 = icmp ult i32 %13, %28
  br i1 %29, label %9, label %30, !llvm.loop !9

30:                                               ; preds = %9, %0
  %31 = phi i32 [ 0, %0 ], [ %22, %9 ]
  %32 = phi i32 [ 0, %0 ], [ %23, %9 ]
  %33 = mul i32 %32, -2
  %34 = add i32 %33, %31
  %35 = sdiv i32 %34, 2
  %36 = add nsw i32 %32, -2
  %37 = mul nsw i32 %35, %36
  %38 = call i32 (i8*, ...) @printf(i8* nonnull dereferenceable(1) getelementptr inbounds ([3 x i8], [3 x i8]* @.str, i64 0, i64 0), i32 %37)
  call void @llvm.lifetime.end.p0i8(i64 4, i8* nonnull %4) #3
  call void @llvm.lifetime.end.p0i8(i64 4, i8* nonnull %3) #3
  ret i32 0
}

; Function Attrs: argmemonly mustprogress nofree nosync nounwind willreturn
declare void @llvm.lifetime.start.p0i8(i64 immarg, i8* nocapture) #1

; Function Attrs: nofree nounwind
declare noundef i32 @__isoc99_scanf(i8* nocapture noundef readonly, ...) local_unnamed_addr #2

; Function Attrs: nofree nounwind
declare noundef i32 @printf(i8* nocapture noundef readonly, ...) local_unnamed_addr #2

; Function Attrs: argmemonly mustprogress nofree nosync nounwind willreturn
declare void @llvm.lifetime.end.p0i8(i64 immarg, i8* nocapture) #1


!llvm.module.flags = !{!0, !1, !2, !3}
!llvm.ident = !{!4}

!0 = !{i32 1, !"wchar_size", i32 4}
!1 = !{i32 7, !"PIC Level", i32 2}
!2 = !{i32 7, !"PIE Level", i32 2}
!3 = !{i32 7, !"uwtable", i32 1}
!4 = !{!"clang version 13.0.0"}
!5 = !{!6, !6, i64 0}
!6 = !{!"int", !7, i64 0}
!7 = !{!"omnipotent char", !8, i64 0}
!8 = !{!"Simple C/C++ TBAA"}
!9 = distinct !{!9, !10}
!10 = !{!"llvm.loop.mustprogress"}
